target datalayout = "e-m:e-p270:32:32-p271:32:32-p272:64:64-i64:64-i128:128-f80:128-n8:16:32:64-S128"
target triple = "x86_64-pc-linux-gnu"

%struct.H5G_link_table_t = type { i64, ptr }

@H5G_init_g = external global i8, align 1
@H5_libterm_g = external global i8, align 1
@.str = private unnamed_addr constant [104 x i8] c"generated/home/dtcxzyw/WorkSpace/Projects/compilers/llvm-opt-benchmark/bench/hdf5/hdf5/src/H5Gcompact.c\00", align 1
@H5E_SYM_g = external global i64, align 8
@H5E_CANTINIT_g = external global i64, align 8
@.str.2 = private unnamed_addr constant [32 x i8] c"can't create link message table\00", align 1
@H5E_CANTFREE_g = external global i64, align 8
@.str.4 = private unnamed_addr constant [29 x i8] c"unable to release link table\00", align 1
@__func__.H5G__compact_iterate = private unnamed_addr constant [21 x i8] c"H5G__compact_iterate\00", align 1
@H5E_CANTNEXT_g = external global i64, align 8
@.str.6 = private unnamed_addr constant [26 x i8] c"iteration operator failed\00", align 1

; Function Attrs: nounwind uwtable
define i32 @H5G__compact_iterate(ptr noundef %0, ptr noundef %1, i32 noundef %2, i32 noundef %3, i64 noundef %4, ptr noundef %5, ptr noundef %6, ptr noundef %7) #0 {
  %9 = alloca ptr, align 8
  %10 = alloca ptr, align 8
  %11 = alloca i32, align 4
  %12 = alloca i32, align 4
  %13 = alloca i64, align 8
  %14 = alloca ptr, align 8
  %15 = alloca ptr, align 8
  %16 = alloca ptr, align 8
  %17 = alloca %struct.H5G_link_table_t, align 8
  %18 = alloca i32, align 4
  %19 = alloca i8, align 1
  store ptr %0, ptr %9, align 8, !tbaa !3
  store ptr %1, ptr %10, align 8, !tbaa !18
  store i32 %2, ptr %11, align 4, !tbaa !10
  store i32 %3, ptr %12, align 4, !tbaa !10
  store i64 %4, ptr %13, align 8, !tbaa !16
  store ptr %5, ptr %14, align 8, !tbaa !22
  store ptr %6, ptr %15, align 8, !tbaa !30
  store ptr %7, ptr %16, align 8, !tbaa !30
  call void @llvm.lifetime.start.p0(i64 16, ptr %17) #8
  call void @llvm.memset.p0.i64(ptr align 8 %17, i8 0, i64 16, i1 false)
  call void @llvm.lifetime.start.p0(i64 4, ptr %18) #8
  store i32 -1, ptr %18, align 4, !tbaa !10
  call void @llvm.lifetime.start.p0(i64 1, ptr %19) #8
  store i8 0, ptr %19, align 1, !tbaa !12
  %20 = load i8, ptr @H5G_init_g, align 1, !tbaa !12, !range !14, !noundef !15
  %21 = trunc i8 %20 to i1
  br i1 %21, label %26, label %22

22:                                               ; preds = %8
  %23 = load i8, ptr @H5_libterm_g, align 1, !tbaa !12, !range !14, !noundef !15
  %24 = trunc i8 %23 to i1
  %25 = xor i1 %24, true
  br label %26

26:                                               ; preds = %22, %8
  %27 = phi i1 [ true, %8 ], [ %25, %22 ]
  %28 = xor i1 %27, true
  %29 = xor i1 %28, true
  %30 = zext i1 %29 to i32
  %31 = sext i32 %30 to i64
  %32 = call i64 @llvm.expect.i64(i64 %31, i64 1)
  %33 = icmp ne i64 %32, 0
  br i1 %33, label %34, label %99

34:                                               ; preds = %26
  %35 = load ptr, ptr %9, align 8, !tbaa !3
  %36 = load ptr, ptr %10, align 8, !tbaa !18
  %37 = load i32, ptr %11, align 4, !tbaa !10
  %38 = load i32, ptr %12, align 4, !tbaa !10
  %39 = call i32 @H5G__compact_build_table(ptr noundef %35, ptr noundef %36, i32 noundef %37, i32 noundef %38, ptr noundef %17)
  %40 = icmp slt i32 %39, 0
  br i1 %40, label %41, label %60

41:                                               ; preds = %34
  br label %42

42:                                               ; preds = %41
  br label %43

43:                                               ; preds = %42
  br label %44

44:                                               ; preds = %43
  %45 = load i64, ptr @H5E_SYM_g, align 8, !tbaa !16
  %46 = load i64, ptr @H5E_CANTINIT_g, align 8, !tbaa !16
  %47 = call i32 (ptr, ptr, i32, i64, i64, ptr, ...) @H5E_printf_stack(ptr noundef @.str, ptr noundef @__func__.H5G__compact_iterate, i32 noundef 377, i64 noundef %45, i64 noundef %46, ptr noundef @.str.2)
  br label %48

48:                                               ; preds = %44
  br label %49

49:                                               ; preds = %48
  store i8 1, ptr %19, align 1, !tbaa !12
  %50 = load i8, ptr %19, align 1, !tbaa !12, !range !14, !noundef !15
  %51 = trunc i8 %50 to i1
  %52 = zext i1 %51 to i8
  store i8 %52, ptr %19, align 1, !tbaa !12
  br label %53

53:                                               ; preds = %49
  br label %54

54:                                               ; preds = %53
  br label %55

55:                                               ; preds = %54
  store i32 -1, ptr %18, align 4, !tbaa !10
  br label %75

56:                                               ; No predecessors!
  br label %57

57:                                               ; preds = %56
  br label %58

58:                                               ; preds = %57
  br label %59

59:                                               ; preds = %58
  br label %60

60:                                               ; preds = %59, %34
  %61 = load i64, ptr %13, align 8, !tbaa !16
  %62 = load ptr, ptr %14, align 8, !tbaa !22
  %63 = load ptr, ptr %15, align 8, !tbaa !30
  %64 = load ptr, ptr %16, align 8, !tbaa !30
  %65 = call i32 @H5G__link_iterate_table(ptr noundef %17, i64 noundef %61, ptr noundef %62, ptr noundef %63, ptr noundef %64)
  store i32 %65, ptr %18, align 4, !tbaa !10
  %66 = icmp slt i32 %65, 0
  br i1 %66, label %67, label %74

67:                                               ; preds = %60
  br label %68

68:                                               ; preds = %67
  %69 = load i64, ptr @H5E_SYM_g, align 8, !tbaa !16
  %70 = load i64, ptr @H5E_CANTNEXT_g, align 8, !tbaa !16
  %71 = call i32 (ptr, ptr, i32, i64, i64, ptr, ...) @H5E_printf_stack(ptr noundef @.str, ptr noundef @__func__.H5G__compact_iterate, i32 noundef 381, i64 noundef %69, i64 noundef %70, ptr noundef @.str.6)
  br label %72

72:                                               ; preds = %68
  br label %73

73:                                               ; preds = %72
  br label %74

74:                                               ; preds = %73, %60
  br label %75

75:                                               ; preds = %74, %55
  %76 = getelementptr inbounds nuw %struct.H5G_link_table_t, ptr %17, i32 0, i32 1
  %77 = load ptr, ptr %76, align 8, !tbaa !26
  %78 = icmp ne ptr %77, null
  br i1 %78, label %79, label %98

79:                                               ; preds = %75
  %80 = call i32 @H5G__link_release_table(ptr noundef %17)
  %81 = icmp slt i32 %80, 0
  br i1 %81, label %82, label %98

82:                                               ; preds = %79
  br label %83

83:                                               ; preds = %82
  br label %84

84:                                               ; preds = %83
  br label %85

85:                                               ; preds = %84
  %86 = load i64, ptr @H5E_SYM_g, align 8, !tbaa !16
  %87 = load i64, ptr @H5E_CANTFREE_g, align 8, !tbaa !16
  %88 = call i32 (ptr, ptr, i32, i64, i64, ptr, ...) @H5E_printf_stack(ptr noundef @.str, ptr noundef @__func__.H5G__compact_iterate, i32 noundef 386, i64 noundef %86, i64 noundef %87, ptr noundef @.str.4)
  br label %89

89:                                               ; preds = %85
  br label %90

90:                                               ; preds = %89
  store i8 1, ptr %19, align 1, !tbaa !12
  %91 = load i8, ptr %19, align 1, !tbaa !12, !range !14, !noundef !15
  %92 = trunc i8 %91 to i1
  %93 = zext i1 %92 to i8
  store i8 %93, ptr %19, align 1, !tbaa !12
  br label %94

94:                                               ; preds = %90
  br label %95

95:                                               ; preds = %94
  store i32 -1, ptr %18, align 4, !tbaa !10
  br label %96

96:                                               ; preds = %95
  br label %97

97:                                               ; preds = %96
  br label %98

98:                                               ; preds = %97, %79, %75
  br label %99

99:                                               ; preds = %98, %26
  %100 = load i32, ptr %18, align 4, !tbaa !10
  call void @llvm.lifetime.end.p0(i64 1, ptr %19) #8
  call void @llvm.lifetime.end.p0(i64 4, ptr %18) #8
  call void @llvm.lifetime.end.p0(i64 16, ptr %17) #8
  ret i32 %100
}