; Function Attrs: nounwind uwtable
define i32 @H5G__compact_iterate(ptr noundef %0, ptr noundef readonly captures(none) %1, i32 noundef %2, i32 noundef %3, i64 noundef %4, ptr noundef %5, ptr noundef %6, ptr noundef %7) local_unnamed_addr #0 {
  %9 = alloca %struct.H5G_link_table_t, align 8
  call void @llvm.lifetime.start.p0(i64 16, ptr nonnull %9) #8
  call void @llvm.memset.p0.i64(ptr noundef nonnull align 8 dereferenceable(16) %9, i8 0, i64 16, i1 false)
  %10 = load i8, ptr @H5G_init_g, align 1, !tbaa !3, !range !7, !noundef !8
  %11 = trunc nuw i8 %10 to i1
  %12 = load i8, ptr @H5_libterm_g, align 1, !range !7
  %13 = trunc nuw i8 %12 to i1
  %14 = xor i1 %13, true
  %15 = select i1 %11, i1 true, i1 %14
  br i1 %15, label %16, label %40, !prof !9

16:                                               ; preds = %8
  %17 = call fastcc i32 @H5G__compact_build_table(ptr noundef %0, ptr noundef %1, i32 noundef %2, i32 noundef %3, ptr noundef %9)
  %18 = icmp slt i32 %17, 0
  br i1 %18, label %19, label %23

19:                                               ; preds = %16
  %20 = load i64, ptr @H5E_SYM_g, align 8, !tbaa !10
  %21 = load i64, ptr @H5E_CANTINIT_g, align 8, !tbaa !10
  %22 = call i32 (ptr, ptr, i32, i64, i64, ptr, ...) @H5E_printf_stack(ptr noundef nonnull @.str, ptr noundef nonnull @__func__.H5G__compact_iterate, i32 noundef 377, i64 noundef %20, i64 noundef %21, ptr noundef nonnull @.str.2) #8
  br label %30

23:                                               ; preds = %16
  %24 = call i32 @H5G__link_iterate_table(ptr noundef nonnull %9, i64 noundef %4, ptr noundef %5, ptr noundef %6, ptr noundef %7) #8
  %25 = icmp slt i32 %24, 0
  br i1 %25, label %26, label %30

26:                                               ; preds = %23
  %27 = load i64, ptr @H5E_SYM_g, align 8, !tbaa !10
  %28 = load i64, ptr @H5E_CANTNEXT_g, align 8, !tbaa !10
  %29 = call i32 (ptr, ptr, i32, i64, i64, ptr, ...) @H5E_printf_stack(ptr noundef nonnull @.str, ptr noundef nonnull @__func__.H5G__compact_iterate, i32 noundef 381, i64 noundef %27, i64 noundef %28, ptr noundef nonnull @.str.6) #8
  br label %30

30:                                               ; preds = %23, %26, %19
  %.1 = phi i32 [ -1, %19 ], [ %24, %26 ], [ %24, %23 ]
  %31 = getelementptr inbounds nuw i8, ptr %9, i64 8
  %32 = load ptr, ptr %31, align 8, !tbaa !16
  %.not = icmp eq ptr %32, null
  br i1 %.not, label %40, label %33

33:                                               ; preds = %30
  %34 = call i32 @H5G__link_release_table(ptr noundef nonnull %9) #8
  %35 = icmp slt i32 %34, 0
  br i1 %35, label %36, label %40

36:                                               ; preds = %33
  %37 = load i64, ptr @H5E_SYM_g, align 8, !tbaa !10
  %38 = load i64, ptr @H5E_CANTFREE_g, align 8, !tbaa !10
  %39 = call i32 (ptr, ptr, i32, i64, i64, ptr, ...) @H5E_printf_stack(ptr noundef nonnull @.str, ptr noundef nonnull @__func__.H5G__compact_iterate, i32 noundef 386, i64 noundef %37, i64 noundef %38, ptr noundef nonnull @.str.4) #8
  br label %40

40:                                               ; preds = %30, %33, %36, %8
  %.0 = phi i32 [ -1, %36 ], [ %.1, %33 ], [ %.1, %30 ], [ -1, %8 ]
  call void @llvm.lifetime.end.p0(i64 16, ptr nonnull %9) #8
  ret i32 %.0
}